target datalayout = "e-m:e-p270:32:32-p271:32:32-p272:64:64-i64:64-i128:128-f80:128-n8:16:32:64-S128"
target triple = "x86_64-pc-linux-gnu"

@dsakey = internal global ptr null, align 8
@.str = private unnamed_addr constant [20 x i8] c"dsa_exact_size_test\00", align 1
@.str.1 = private unnamed_addr constant [22 x i8] c"dsa_small_digest_test\00", align 1
@.str.2 = private unnamed_addr constant [22 x i8] c"dsa_large_digest_test\00", align 1
@.str.3 = private unnamed_addr constant [42 x i8] c"../openssl/test/dsa_no_digest_size_test.c\00", align 1
@.str.4 = private unnamed_addr constant [27 x i8] c"dsakey = load_dsa_params()\00", align 1
@.str.5 = private unnamed_addr constant [25 x i8] c"DSA_generate_key(dsakey)\00", align 1
@.str.6 = private unnamed_addr constant [2 x i8] c"1\00", align 1
@load_dsa_params.dsaq_2048 = internal global [32 x i8] c"\AD-n\17\B0\F3\EB\C7\B8\EE\95x\F2\17\F53\01g\BC\DE\93\FF\EE@\E8\7F\F1\93mK\87\13", align 16

; Function Attrs: nounwind uwtable
define internal ptr @load_dsa_params() #0 {
  %1 = alloca ptr, align 8
  %2 = alloca ptr, align 8
  %3 = alloca ptr, align 8
  %4 = alloca ptr, align 8
  %5 = alloca ptr, align 8
  %6 = alloca i32, align 4
  call void @llvm.lifetime.start.p0(i64 8, ptr %2) #5
  %7 = call ptr @DSA_new()
  store ptr %7, ptr %2, align 8, !tbaa !4
  call void @llvm.lifetime.start.p0(i64 8, ptr %3) #5
  call void @llvm.lifetime.start.p0(i64 8, ptr %4) #5
  call void @llvm.lifetime.start.p0(i64 8, ptr %5) #5
  %8 = load ptr, ptr %2, align 8, !tbaa !4
  %9 = icmp eq ptr %8, null
  br i1 %9, label %10, label %11

10:                                               ; preds = %0
  store ptr null, ptr %1, align 8
  store i32 1, ptr %6, align 4
  br label %25

11:                                               ; preds = %0
  %12 = load ptr, ptr %2, align 8, !tbaa !4
  %13 = call ptr @BN_bin2bn(ptr noundef @load_dsa_params.dsap_2048, i32 noundef 256, ptr noundef null)
  store ptr %13, ptr %3, align 8, !tbaa !9
  %14 = call ptr @BN_bin2bn(ptr noundef @load_dsa_params.dsaq_2048, i32 noundef 32, ptr noundef null)
  store ptr %14, ptr %4, align 8, !tbaa !9
  %15 = call ptr @BN_bin2bn(ptr noundef @load_dsa_params.dsag_2048, i32 noundef 256, ptr noundef null)
  store ptr %15, ptr %5, align 8, !tbaa !9
  %16 = call i32 @DSA_set0_pqg(ptr noundef %12, ptr noundef %13, ptr noundef %14, ptr noundef %15)
  %17 = icmp ne i32 %16, 0
  br i1 %17, label %23, label %18

18:                                               ; preds = %11
  %19 = load ptr, ptr %2, align 8, !tbaa !4
  call void @DSA_free(ptr noundef %19)
  %20 = load ptr, ptr %3, align 8, !tbaa !9
  call void @BN_free(ptr noundef %20)
  %21 = load ptr, ptr %4, align 8, !tbaa !9
  call void @BN_free(ptr noundef %21)
  %22 = load ptr, ptr %5, align 8, !tbaa !9
  call void @BN_free(ptr noundef %22)
  store ptr null, ptr %1, align 8
  store i32 1, ptr %6, align 4
  br label %25

23:                                               ; preds = %11
  %24 = load ptr, ptr %2, align 8, !tbaa !4
  store ptr %24, ptr %1, align 8
  store i32 1, ptr %6, align 4
  br label %25

25:                                               ; preds = %23, %18, %10
  call void @llvm.lifetime.end.p0(i64 8, ptr %5) #5
  call void @llvm.lifetime.end.p0(i64 8, ptr %4) #5
  call void @llvm.lifetime.end.p0(i64 8, ptr %3) #5
  call void @llvm.lifetime.end.p0(i64 8, ptr %2) #5
  %26 = load ptr, ptr %1, align 8
  ret ptr %26
}

; Function Attrs: nounwind uwtable
define internal i32 @genkeys() #0 {
  %1 = alloca i32, align 4
  %2 = call ptr @load_dsa_params()
  store ptr %2, ptr @dsakey, align 8, !tbaa !4
  %3 = call i32 @test_ptr(ptr noundef @.str.3, i32 noundef 117, ptr noundef @.str.4, ptr noundef %2)
  %4 = icmp ne i32 %3, 0
  br i1 %4, label %6, label %5

5:                                                ; preds = %0
  store i32 0, ptr %1, align 4
  br label %13

6:                                                ; preds = %0
  %7 = load ptr, ptr @dsakey, align 8, !tbaa !4
  %8 = call i32 @DSA_generate_key(ptr noundef %7)
  %9 = call i32 @test_int_eq(ptr noundef @.str.3, i32 noundef 120, ptr noundef @.str.5, ptr noundef @.str.6, i32 noundef %8, i32 noundef 1)
  %10 = icmp ne i32 %9, 0
  br i1 %10, label %12, label %11

11:                                               ; preds = %6
  store i32 0, ptr %1, align 4
  br label %13

12:                                               ; preds = %6
  store i32 1, ptr %1, align 4
  br label %13

13:                                               ; preds = %12, %11, %5
  %14 = load i32, ptr %1, align 4
  ret i32 %14
}

; Function Attrs: nounwind uwtable
define dso_local i32 @setup_tests() #0 {
  %1 = alloca i32, align 4
  %2 = call i32 @genkeys()
  %3 = icmp ne i32 %2, 0
  br i1 %3, label %5, label %4

4:                                                ; preds = %0
  store i32 0, ptr %1, align 4
  br label %6

5:                                                ; preds = %0
  call void @add_test(ptr noundef @.str, ptr noundef @dsa_exact_size_test)
  call void @add_test(ptr noundef @.str.1, ptr noundef @dsa_small_digest_test)
  call void @add_test(ptr noundef @.str.2, ptr noundef @dsa_large_digest_test)
  store i32 1, ptr %1, align 4
  br label %6

6:                                                ; preds = %5, %4
  %7 = load i32, ptr %1, align 4
  ret i32 %7
}