; Function Attrs: nounwind uwtable
define dso_local range(i32 0, 2) i32 @setup_tests() local_unnamed_addr #0 {
  %1 = tail call ptr @DSA_new() #5
  %2 = icmp eq ptr %1, null
  br i1 %2, label %load_dsa_params.exit.i, label %3

3:                                                ; preds = %0
  %4 = tail call ptr @BN_bin2bn(ptr noundef nonnull @load_dsa_params.dsap_2048, i32 noundef 256, ptr noundef null) #5
  %5 = tail call ptr @BN_bin2bn(ptr noundef nonnull @load_dsa_params.dsaq_2048, i32 noundef 32, ptr noundef null) #5
  %6 = tail call ptr @BN_bin2bn(ptr noundef nonnull @load_dsa_params.dsag_2048, i32 noundef 256, ptr noundef null) #5
  %7 = tail call i32 @DSA_set0_pqg(ptr noundef nonnull %1, ptr noundef %4, ptr noundef %5, ptr noundef %6) #5
  %.not.i.i = icmp eq i32 %7, 0
  br i1 %.not.i.i, label %8, label %load_dsa_params.exit.i

8:                                                ; preds = %3
  tail call void @DSA_free(ptr noundef nonnull %1) #5
  tail call void @BN_free(ptr noundef %4) #5
  tail call void @BN_free(ptr noundef %5) #5
  tail call void @BN_free(ptr noundef %6) #5
  br label %load_dsa_params.exit.i

load_dsa_params.exit.i:                           ; preds = %8, %3, %0
  %.0.i.i = phi ptr [ null, %8 ], [ null, %0 ], [ %1, %3 ]
  store ptr %.0.i.i, ptr @dsakey, align 8, !tbaa !4
  %9 = tail call i32 @test_ptr(ptr noundef nonnull @.str.3, i32 noundef 117, ptr noundef nonnull @.str.4, ptr noundef %.0.i.i) #5
  %.not.i = icmp eq i32 %9, 0
  br i1 %.not.i, label %genkeys.exit.thread, label %genkeys.exit

genkeys.exit:                                     ; preds = %load_dsa_params.exit.i
  %10 = load ptr, ptr @dsakey, align 8, !tbaa !4
  %11 = tail call i32 @DSA_generate_key(ptr noundef %10) #5
  %12 = tail call i32 @test_int_eq(ptr noundef nonnull @.str.3, i32 noundef 120, ptr noundef nonnull @.str.5, ptr noundef nonnull @.str.6, i32 noundef %11, i32 noundef 1) #5
  %.not1.i.not = icmp eq i32 %12, 0
  br i1 %.not1.i.not, label %genkeys.exit.thread, label %13

13:                                               ; preds = %genkeys.exit
  tail call void @add_test(ptr noundef nonnull @.str, ptr noundef nonnull @dsa_exact_size_test) #5
  tail call void @add_test(ptr noundef nonnull @.str.1, ptr noundef nonnull @dsa_small_digest_test) #5
  tail call void @add_test(ptr noundef nonnull @.str.2, ptr noundef nonnull @dsa_large_digest_test) #5
  br label %genkeys.exit.thread

genkeys.exit.thread:                              ; preds = %load_dsa_params.exit.i, %genkeys.exit, %13
  %.0 = phi i32 [ 1, %13 ], [ 0, %genkeys.exit ], [ 0, %load_dsa_params.exit.i ]
  ret i32 %.0
}